; Function Attrs: mustprogress nofree norecurse nosync nounwind willreturn memory(read, inaccessiblemem: none) uwtable
define hidden noundef i32 @_ZN9CodeCache13nmethod_countEv() local_unnamed_addr #5 align 2 {
  %1 = load ptr, ptr @_ZN9CodeCache14_nmethod_heapsE, align 8
  %2 = load i32, ptr %1, align 4
  %.not9 = icmp eq i32 %2, 0
  br i1 %.not9, label %._crit_edge, label %.lr.ph

.lr.ph:                                           ; preds = %0
  %3 = getelementptr inbounds i8, ptr %1, i64 8
  %4 = load ptr, ptr %3, align 8
  %5 = zext i32 %2 to i64
  br label %6

6:                                                ; preds = %.lr.ph, %6
  %indvars.iv = phi i64 [ 0, %.lr.ph ], [ %indvars.iv.next, %6 ]
  %.011 = phi i32 [ 0, %.lr.ph ], [ %11, %6 ]
  %7 = getelementptr inbounds ptr, ptr %4, i64 %indvars.iv
  %8 = load ptr, ptr %7, align 8
  %9 = getelementptr inbounds i8, ptr %8, i64 320
  %10 = load i32, ptr %9, align 8
  %11 = add nsw i32 %10, %.011
  %indvars.iv.next = add nuw nsw i64 %indvars.iv, 1
  %.not = icmp eq i64 %indvars.iv.next, %5
  br i1 %.not, label %._crit_edge, label %6

._crit_edge:                                      ; preds = %6, %0
  %.0.lcssa = phi i32 [ 0, %0 ], [ %11, %6 ]
  ret i32 %.0.lcssa
}